(dp0
Vall
p1
I448
sVjason
p2
I389
sVforget
p3
I270
sVdance
p4
I254
sVthe most
p5
I456
sVif you
p6
I752
sVfour
p7
I950
sVgo set
p8
I983
sVwoods
p9
I908
sVsleep
p10
I820
sVall time
p11
I480
sVgrateful
p12
I115
sVand i
p13
I349
sVgo
p14
I431
sVfollow
p15
I864
sVtaylor swift
p16
I350
sVand a
p17
I454
sVhappy nd
p18
I440
sVrd
p19
I812
sVvenice
p20
I86
sVpope
p21
I488
sVaug
p22
I849
sVtv
p23
I404
sVyoung
p24
I695
sVthursday
p25
I327
sVi will
p26
I237
sVmessi
p27
I339
sVfinally
p28
I94
sVthe first
p29
I684
sVth
p30
I555
sVpride
p31
I127
sVits a
p32
I622
sVnational ice
p33
I9
sVbrown
p34
I130
sVsong
p35
I151
sVvery
p36
I140
sVforward to
p37
I27
sVnight raw
p38
I398
sVa day
p39
I961
sVheard
p40
I764
sVme
p41
I486
sVlove to
p42
I187
sVsurprise
p43
I882
sVtomorrow is
p44
I84
sVticket
p45
I801
sVst time
p46
I568
sVcool
p47
I75
sVday is
p48
I182
sVschool
p49
I558
sVtonight and
p50
I597
sVmagic
p51
I39
sVso excited
p52
I1
sVmade
p53
I566
sVcelebrity
p54
I671
sVlist
p55
I799
sVbrother
p56
I443
sVbob marley
p57
I136
sVtry
p58
I841
sVthis
p59
I559
sVrd time
p60
I749
sVannounced
p61
I931
sVharry
p62
I410
sVradio
p63
I933
sVto come
p64
I476
sVround
p65
I757
sVthe season
p66
I972
sVexcited to
p67
I5
sVenjoy
p68
I18
sVwork
p69
I602
sVmay allah
p70
I809
sVcarly
p71
I385
sVted
p72
I88
sVjanet jackson
p73
I74
sVyou can
p74
I395
sVsecond
p75
I958
sVnd best
p76
I999
sVof all
p77
I214
sVsheeran
p78
I296
sVmake a
p79
I891
sVfantasticbeasts
p80
I79
sVblue
p81
I870
sVthe pride
p82
I618
sVon monday
p83
I837
sVheres
p84
I681
sVsun
p85
I617
sVright now
p86
I836
sVanniversary
p87
I250
sVpumped
p88
I980
sVi like
p89
I294
sVwaiting
p90
I831
sVfirst time
p91
I851
sVbetter than
p92
I185
sVfrank
p93
I780
sVnew
p94
I473
sVtribute
p95
I743
sVthe last
p96
I573
sVever
p97
I230
sVmake sure
p98
I775
sVsuch a
p99
I867
sVmy life
p100
I463
sVand it
p101
I536
sVsept
p102
I419
sVmy birthday
p103
I114
sVhere
p104
I432
sVhours
p105
I847
sVbless you
p106
I777
sVto a
p107
I475
sVmaking
p108
I502
sVsing
p109
I985
sVnovember
p110
I487
sVsaturday night
p111
I640
sVjurassic park
p112
I81
sVevery
p113
I772
sVboy
p114
I607
sVgreat
p115
I31
sVkids
p116
I839
sVwhen i
p117
I471
sVbrilliant
p118
I172
sVto meet
p119
I874
sVtoday is
p120
I529
sVseason of
p121
I421
sVbob
p122
I142
sVminecraft
p123
I72
sVtime i
p124
I967
sVwas the
p125
I773
sVwith my
p126
I101
sVfantastic
p127
I60
sVlove
p128
I29
sVapple
p129
I265
sVfamily
p130
I337
sVextra
p131
I978
sVwin
p132
I236
sVwhile
p133
I721
sVzlatan
p134
I876
sVi was
p135
I390
sVbirthday to
p136
I122
sVsam smith
p137
I353
sVepisode of
p138
I970
sVof my
p139
I106
sVtuesday
p140
I508
sVsinging
p141
I833
sVwith me
p142
I455
sVyou guys
p143
I405
sVstar wars
p144
I52
sViron maiden
p145
I168
sVfrom
p146
I789
sVsnoop
p147
I408
sVto
p148
I650
sVplayed
p149
I792
sVvisit
p150
I944
sVsunday
p151
I397
sVup the
p152
I959
sValmost
p153
I642
sVlive
p154
I538
sVniall
p155
I674
sVmusic
p156
I209
sViphone
p157
I178
sVmeans
p158
I830
sVstage
p159
I868
sVuntil
p160
I557
sVtoday
p161
I260
sVmore
p162
I739
sVteen
p163
I762
sVson
p164
I932
sVevening
p165
I898
sVstarted
p166
I427
sVgo see
p167
I186
sVshirt
p168
I976
sVhaha
p169
I124
sVwars
p170
I76
sVleonard
p171
I875
sVi just
p172
I412
sVphone
p173
I693
sVhad a
p174
I258
sVexcellent
p175
I905
sVbaby
p176
I426
sVwatch the
p177
I329
sVglad
p178
I103
sVto win
p179
I380
sVis coming
p180
I268
sVhigh
p181
I947
sVtime for
p182
I865
sVenjoying
p183
I653
sVjoin
p184
I310
sVibm
p185
I359
sVfiorina
p186
I534
sVthe new
p187
I318
sVoh
p188
I360
sVthank you
p189
I16
sVmovies
p190
I595
sVthe week
p191
I711
sVcan
p192
I522
sVto have
p193
I750
sVmeet
p194
I365
sVta
p195
I599
sVmy
p196
I224
sVnationalfastfoodday
p197
I850
sVmy new
p198
I896
sVhistory
p199
I301
sVbeautiful
p200
I28
sVheart
p201
I927
sVto the
p202
I655
sVsummerslam
p203
I975
sVdecember
p204
I423
sVawesome
p205
I2
sVonedirection
p206
I844
sVve been
p207
I807
sVexcited for
p208
I19
sVto disneyland
p209
I639
sVtickets for
p210
I877
sVwant
p211
I784
sVi hope
p212
I163
sVwonderful
p213
I736
sVthanks to
p214
I202
sVon amazon
p215
I493
sVbe in
p216
I758
sVhuge
p217
I369
sVa good
p218
I71
sVto start
p219
I672
sVgoal
p220
I815
sVzac brown
p221
I112
sVwatching
p222
I197
sVnt miss
p223
I942
sVhappy birthday
p224
I0
sVi wish
p225
I657
sVhot
p226
I66
sVit tomorrow
p227
I984
sVits friday
p228
I629
sVhi
p229
I912
sVcomedy
p230
I977
sVbeach
p231
I87
sVand my
p232
I856
sVsee you
p233
I59
sVokay
p234
I666
sVbday
p235
I769
sVthink i
p236
I794
sVcome to
p237
I527
sVend of
p238
I993
sVmac
p239
I170
sVbirthday
p240
I43
sVcoming
p241
I233
sVdate
p242
I716
sVthe best
p243
I32
sVnational hot
p244
I26
sVguys
p245
I269
sVman
p246
I546
sVa
p247
I656
sVhave you
p248
I871
sVfor this
p249
I679
sVtowns tomorrow
p250
I928
sVback to
p251
I520
sVeric church
p252
I65
sVnike
p253
I862
sVsun is
p254
I507
sVst
p255
I717
sVcream day
p256
I7
sVgot to
p257
I901
sVso
p258
I315
sVfan
p259
I281
sVfleetwood
p260
I110
sVfirst
p261
I641
sVdream
p262
I290
sVplaying
p263
I357
sVcute
p264
I207
sVhappyemoji
p265
I35
sVwas so
p266
I903
sVin november
p267
I484
sVseptember
p268
I457
sVthis sunday
p269
I311
sVsoon
p270
I723
sVyears
p271
I652
sVpaper
p272
I132
sVthrough
p273
I825
sVlooks
p274
I643
sVcruise
p275
I531
sVso happy
p276
I141
sVon friday
p277
I497
sVwatching the
p278
I328
sVits
p279
I513
sVgalaxy
p280
I345
sVbefore
p281
I834
sVperfect
p282
I21
sVthank
p283
I25
sVtill
p284
I719
sVinteresting
p285
I234
sVll
p286
I605
sVso i
p287
I373
sVbeyonce
p288
I262
sVamazing
p289
I4
sVlabor
p290
I190
sVbetter
p291
I179
sVgrade
p292
I626
sVthe world
p293
I594
sVcomes out
p294
I267
sVwhen you
p295
I920
sVfriday and
p296
I694
sVill be
p297
I102
sVteam
p298
I632
sVmight
p299
I688
sVdad
p300
I680
sVtickets
p301
I402
sVgood
p302
I57
sVthrones
p303
I253
sVya
p304
I713
sVon the
p305
I612
sVa few
p306
I943
sVnokia
p307
I483
sVjust got
p308
I222
sVcover
p309
I919
sVblessed
p310
I651
sVband
p311
I167
sVi ve
p312
I272
sVi got
p313
I284
sVparty
p314
I574
sVlisten to
p315
I798
sVget the
p316
I989
sVnow
p317
I796
sVday
p318
I150
sVday at
p319
I962
sVthe show
p320
I744
sVfebruary
p321
I996
sVto see
p322
I91
sValways
p323
I285
sVlove that
p324
I955
sVxx
p325
I447
sVbless
p326
I41
sVa lot
p327
I547
sVdog day
p328
I30
sVrock
p329
I275
sVto you
p330
I670
sVget to
p331
I361
sVwent
p332
I781
sVluck
p333
I37
sVeveryone
p334
I228
sVed
p335
I348
sVallah
p336
I506
sVyeah
p337
I291
sVgifford
p338
I344
sVwednesday
p339
I516
sVjust saw
p340
I863
sVthe th
p341
I511
sVmilan
p342
I776
sVfinish
p343
I562
sVyear
p344
I323
sVand tomorrow
p345
I930
sVour
p346
I282
sVsharknado
p347
I384
sVmarley
p348
I93
sVevent
p349
I368
sVspecial
p350
I331
sVreally
p351
I435
sValbum
p352
I403
sVca nt
p353
I221
sVjackson
p354
I147
sVhave a
p355
I242
sVhouse
p356
I633
sVgod
p357
I180
sVsince
p358
I668
sVsunday is
p359
I492
sVis gon
p360
I787
sVgeorge
p361
I813
sVlooking
p362
I131
sVihop
p363
I148
sVgot
p364
I386
sVget
p365
I720
sVpaul mccartney
p366
I586
sVday i
p367
I878
sVworking
p368
I956
sVout tomorrow
p369
I922
sVto watch
p370
I201
sVfound
p371
I708
sVoff to
p372
I229
sVon sunday
p373
I701
sVipod
p374
I929
sVfriday
p375
I273
sVon this
p376
I888
sVfree
p377
I198
sVsee the
p378
I160
sVed sheeran
p379
I300
sVdisneyland
p380
I92
sVwish i
p381
I840
sVguy
p382
I843
sVday of
p383
I216
sVher
p384
I724
sVstarts
p385
I276
sVcould
p386
I740
sVbrown band
p387
I117
sVdays
p388
I698
sVdavid
p389
I691
sVthing
p390
I581
sVway to
p391
I162
sVto celebrate
p392
I528
sVwe have
p393
I606
sVa nice
p394
I510
sVdunne
p395
I375
sVhannibal
p396
I211
sVsupport
p397
I832
sVis on
p398
I377
sVthis saturday
p399
I564
sValready
p400
I669
sVthe night
p401
I517
sVkpop
p402
I981
sVfeel
p403
I611
sVready for
p404
I164
sVpotter
p405
I407
sVzac
p406
I107
sVto go
p407
I336
sVone
p408
I422
sVseinfeld
p409
I241
sVi know
p410
I678
sVdone
p411
I544
sVlong
p412
I413
sVanother
p413
I590
sVsuch
p414
I540
sVgrateful dead
p415
I195
sVmiss
p416
I256
sVtomorrow
p417
I248
sVbrock
p418
I518
sVcity
p419
I873
sVlittle
p420
I396
sVi saw
p421
I406
sVwith the
p422
I575
sVdogg
p423
I307
sVtop
p424
I582
sVgirls
p425
I827
sVplayer
p426
I644
sVthe game
p427
I872
sVwas a
p428
I619
sVtoo
p429
I706
sVfinal
p430
I692
sVfriend
p431
I332
sVlisten
p432
I524
sVyou know
p433
I727
sVlot
p434
I452
sVshawn
p435
I730
sVseason
p436
I418
sVtomorrow at
p437
I259
sVpark
p438
I118
sVnirvana
p439
I355
sVreleased
p440
I601
sVdigi
p441
I379
sVnt wait
p442
I6
sVa little
p443
I663
sVjuly
p444
I293
sVday tomorrow
p445
I173
sVthan
p446
I754
sVconor mcgregor
p447
I489
sVgreat day
p448
I232
sVjuly is
p449
I330
sVkind
p450
I965
sVlast
p451
I499
sVday to
p452
I542
sVnight football
p453
I394
sVbeautyandthebeast
p454
I352
sVroyal
p455
I995
sVbed
p456
I436
sVdogs
p457
I921
sVi ca
p458
I226
sViron
p459
I188
sVgalaxy note
p460
I399
sVvideo
p461
I279
sVday and
p462
I603
sVbe my
p463
I846
sVand
p464
I572
sVwith and
p465
I991
sVsam
p466
I446
sVthe year
p467
I732
sVcohen
p468
I855
sVfor the
p469
I417
sVbrock lesnar
p470
I550
sVbiggest
p471
I902
sVtonight
p472
I176
sVraw
p473
I472
sVhave
p474
I770
sVjurassic world
p475
I42
sVseen
p476
I416
sVhaving a
p477
I881
sVsaw
p478
I144
sVsat
p479
I821
sVric flair
p480
I911
sVi think
p481
I735
sVnights
p482
I525
sVcongrats
p483
I139
sVchris brown
p484
I434
sVnote
p485
I494
sValso
p486
I662
sVhave the
p487
I378
sVbest
p488
I48
sVperformance
p489
I857
sVi liked
p490
I50
sVa new
p491
I371
sVsure
p492
I699
sVis going
p493
I326
sVthough
p494
I630
sVfor a
p495
I659
sVwhole
p496
I960
sVprice
p497
I648
sVmost
p498
I523
sVyou to
p499
I924
sVserena
p500
I545
sVhad
p501
I665
sVgood morning
p502
I125
sVthe sun
p503
I588
sVforever
p504
I915
sVgame of
p505
I133
sVepisode
p506
I238
sVroom
p507
I925
sVhot dog
p508
I24
sVlistening to
p509
I99
sVproud
p510
I36
sVm
p511
I251
sVdog
p512
I51
sVgot ta
p513
I673
sVwe are
p514
I257
sVdefinitely
p515
I308
sVthe day
p516
I370
sVthe galaxy
p517
I860
sVhas a
p518
I613
sVaway
p519
I858
sVi really
p520
I317
sVfor my
p521
I138
sVthisisus
p522
I240
sVcoming to
p523
I346
sVpaul
p524
I460
sVbeckham
p525
I283
sVshow
p526
I338
sVthankyouobama
p527
I244
sVwin the
p528
I658
sVbring
p529
I741
sVready to
p530
I505
sVcelebrating
p531
I835
sVearth
p532
I904
sVenjoyed
p533
I243
sVbelieve
p534
I823
sVjust
p535
I664
sVtitle
p536
I918
sVwith
p537
I589
sVwinner
p538
I848
sVbeat the
p539
I941
sVa video
p540
I67
sVif i
p541
I728
sVonly
p542
I683
sVgoing
p543
I428
sVpretty
p544
I184
sVso far
p545
I952
sVoct
p546
I990
sVhope
p547
I129
sVprince george
p548
I137
sVipad
p549
I263
sVcube
p550
I324
sVthe st
p551
I748
sVthe foo
p552
I196
sVloved
p553
I58
sVbeat
p554
I367
sVthere
p555
I838
sVback in
p556
I824
sVwatch
p557
I298
sVgo to
p558
I737
sVamazon
p559
I194
sVoctober
p560
I560
sVbut i
p561
I565
sVis good
p562
I893
sVme and
p563
I645
sVthe next
p564
I718
sVhim
p565
I842
sVcelebrate
p566
I33
sVprime
p567
I358
sVreading
p568
I866
sVgirl
p569
I430
sVyou and
p570
I660
sVcry
p571
I974
sVmorning
p572
I189
sVstuff
p573
I661
sVmake it
p574
I953
sVrelease
p575
I845
sVliked a
p576
I61
sVbe at
p577
I340
sVset
p578
I804
sVconcert
p579
I208
sVwent to
p580
I747
sVnational
p581
I63
sVbe on
p582
I609
sVsee
p583
I155
sVfull
p584
I703
sVyes
p585
I286
sVon my
p586
I278
sVaugust
p587
I712
sVkurt
p588
I987
sVi see
p589
I994
sVmy st
p590
I859
sVjurassic
p591
I34
sVmovie
p592
I204
sVwow
p593
I105
sVplease
p594
I625
sVprince
p595
I166
sVfans
p596
I391
sVwon
p597
I225
sVhopefully
p598
I89
sVprobably
p599
I714
sVwith a
p600
I501
sVnight with
p601
I885
sVwe
p602
I470
sVi may
p603
I409
sVomg
p604
I104
sVjanet
p605
I62
sVthis time
p606
I979
sVliterally
p607
I900
sVwere
p608
I760
sVfoo fighters
p609
I96
sVwe can
p610
I854
sVlove you
p611
I8
sVjob
p612
I917
sVcome
p613
I246
sVsnoop dogg
p614
I341
sVth time
p615
I675
sVlabor day
p616
I183
sVof thrones
p617
I252
sVtomorrow and
p618
I425
sVill
p619
I219
sVjoin us
p620
I533
sVmyself
p621
I753
sVthor
p622
I957
sVapril
p623
I702
sVtour
p624
I319
sVwe will
p625
I791
sVgames
p626
I462
sVgood to
p627
I992
sVlast night
p628
I274
sVto be
p629
I541
sVto all
p630
I496
sVcomes
p631
I255
sVthanks for
p632
I83
sVis national
p633
I11
sVliked
p634
I38
sVmay the
p635
I157
sVsee paper
p636
I411
sVsweet
p637
I90
sVca
p638
I231
sVwould love
p639
I755
sVthe nd
p640
I731
sVyou may
p641
I705
sVjayz
p642
I890
sVchurch
p643
I154
sVand then
p644
I869
sVrespect
p645
I934
sVwinning
p646
I532
sVmichael jackson
p647
I826
sVthe time
p648
I954
sVps
p649
I677
sVyay
p650
I578
sVat pm
p651
I356
sVand he
p652
I907
sVswift
p653
I388
sVtgif
p654
I77
sVcarey
p655
I215
sVbeen
p656
I797
sVproud of
p657
I778
sVin love
p658
I803
sVgoing to
p659
I363
sVmuch
p660
I287
sVamazon prime
p661
I210
sVnd birthday
p662
I69
sVnaruto
p663
I383
sVwait
p664
I64
sVmeeting
p665
I899
sVpm
p666
I519
sVfrank gifford
p667
I306
sVsanders
p668
I320
sVmike
p669
I152
sVbit
p670
I853
sVvalentines day
p671
I220
sVboth
p672
I654
sVa watchman
p673
I939
sVfor you
p674
I266
sVgen
p675
I949
sVtiger
p676
I938
sVall the
p677
I478
sVlets
p678
I312
sVcatch
p679
I828
sVi get
p680
I342
sVtowns
p681
I113
sVi have
p682
I610
sVtomorrow night
p683
I145
sVxxl
p684
I46
sVplay
p685
I580
sVcarly fiorina
p686
I482
sVwins
p687
I631
sVlook
p688
I636
sVis in
p689
I971
sVstraight
p690
I793
sVbe the
p691
I514
sVgon na
p692
I295
sVwill
p693
I814
sVthe greatest
p694
I200
sVyou are
p695
I620
sVeid
p696
I303
sVfun
p697
I23
sVholiday
p698
I948
sVi m
p699
I247
sVon saturday
p700
I500
sVforce
p701
I880
sVwould
p702
I795
sVve
p703
I297
sVthen
p704
I722
sVlesnar
p705
I585
sVa big
p706
I765
sVis
p707
I696
sVit
p708
I614
sVsting
p709
I119
sVmoto
p710
I906
sVlove the
p711
I146
sVthe great
p712
I909
sVvs
p713
I806
sVbe with
p714
I479
sVin
p715
I768
sVready
p716
I174
sVmadonna
p717
I429
sVric
p718
I321
sVfunny
p719
I437
sVmariah carey
p720
I223
sVexcited about
p721
I790
sVtomorrow for
p722
I687
sVmake
p723
I628
sVto my
p724
I156
sVcheck
p725
I598
sVfood
p726
I946
sVto me
p727
I552
sVshould be
p728
I766
sVnight at
p729
I914
sVm going
p730
I126
sValdean
p731
I335
sVfederer
p732
I111
sVbig brother
p733
I596
sVweek
p734
I192
sVmagic mike
p735
I47
sVabout to
p736
I571
sVacdc
p737
I78
sVyesterday
p738
I771
sVis one
p739
I982
sVthat s
p740
I810
sVi love
p741
I10
sVmetlife
p742
I135
sVbe a
p743
I316
sVkeep
p744
I697
sVgod bless
p745
I498
sVoff
p746
I549
sVundertaker
p747
I897
sVconor
p748
I245
sVi
p749
I362
sVmakes
p750
I512
sVthis friday
p751
I535
sVwell
p752
I467
sVtho
p753
I726
sVedge
p754
I445
sVgreatest
p755
I80
sVtomorrow with
p756
I206
sVthe
p757
I733
sVhope you
p758
I55
sVthe big
p759
I325
sVsummer
p760
I567
sVworld
p761
I481
sVmom
p762
I570
sVpaul dunne
p763
I364
sVdo it
p764
I945
sVphoto
p765
I969
sVrest
p766
I577
sVwhat a
p767
I212
sVfighters
p768
I120
sVthanks
p769
I73
sVis the
p770
I343
sVlexus
p771
I181
sVthe rd
p772
I537
sVtomorrows
p773
I521
sVwait to
p774
I14
sVcongrats to
p775
I986
sVhappy friday
p776
I134
sVa great
p777
I13
sVof the
p778
I725
sVthinking
p779
I926
sVyou tomorrow
p780
I334
sVsmith
p781
I374
sVpride parade
p782
I203
sVyou in
p783
I530
sVwedding
p784
I910
sVmike xxl
p785
I56
sVup to
p786
I887
sVwatch it
p787
I923
sVpaper towns
p788
I109
sVexcited
p789
I3
sVmatch
p790
I569
sVantman
p791
I68
sVgood day
p792
I171
sVtickets to
p793
I459
sVaround
p794
I759
sVbig
p795
I305
sVis a
p796
I818
sVi can
p797
I217
sVearly
p798
I299
sVgame
p799
I579
sVthat i
p800
I292
sVlistening
p801
I123
sVthe way
p802
I313
sVjays
p803
I973
sVamp
p804
I453
sVin the
p805
I738
sVwalk
p806
I966
sVmonday night
p807
I264
sVd
p808
I805
sVmariah
p809
I193
sVapple watch
p810
I704
sVlike
p811
I788
sVthe movie
p812
I746
sVall day
p813
I149
sVxbox
p814
I376
sVall of
p815
I800
sVis my
p816
I143
sVtime to
p817
I852
sVnight
p818
I249
sVbernie sanders
p819
I288
sVon a
p820
I600
sVi had
p821
I583
sVi could
p822
I591
sVsee it
p823
I271
sVgoogle
p824
I700
sVparade
p825
I191
sVwould be
p826
I635
sVone of
p827
I159
sVon september
p828
I802
sVsome
p829
I441
sVback
p830
I444
sVdead
p831
I756
sVwwe
p832
I616
sVlot of
p833
I886
sVhome
p834
I638
sVit will
p835
I634
sVwill be
p836
I458
sVdavid price
p837
I543
sVna be
p838
I158
sVmaiden
p839
I161
sVfor
p840
I556
sVvenice beach
p841
I82
sVthanksgiving
p842
I817
sVice
p843
I97
sVtomorrow morning
p844
I892
sVeverything
p845
I477
sVit on
p846
I554
sVloves
p847
I393
sVis back
p848
I988
sVfoo
p849
I98
sVset a
p850
I895
sVwant to
p851
I782
sVtomorrow i
p852
I177
sVbe
p853
I593
sVdavid beckham
p854
I333
sVfootball
p855
I387
sVharry potter
p856
I465
sVdunkin
p857
I400
sVbernie
p858
I372
sVso much
p859
I100
sVon tuesday
p860
I774
sVfriday night
p861
I218
sVcena
p862
I624
sVexciting
p863
I354
sVsuper
p864
I563
sVall i
p865
I936
sVyou have
p866
I466
sVm gon
p867
I515
sVon
p868
I647
sVsunday night
p869
I913
sVok
p870
I468
sVjustin
p871
I450
sVfor tomorrow
p872
I439
sVnetflix
p873
I239
sVof
p874
I779
sVvalentines
p875
I199
sVfavorite
p876
I22
sVcheck out
p877
I715
sVlike a
p878
I763
sVdinner
p879
I729
sVit to
p880
I811
sVplus
p881
I509
sVafternoon
p882
I464
sVfleetwood mac
p883
I121
sVi am
p884
I302
sVflair
p885
I894
sVwanna
p886
I351
sVseeing
p887
I116
sVown
p888
I964
sVth grade
p889
I689
sVbe there
p890
I646
sVmy favorite
p891
I54
sVsoo
p892
I816
sVgetting
p893
I548
sVme to
p894
I553
sVwith us
p895
I491
sVgood luck
p896
I70
sVnext
p897
I490
sVyour
p898
I433
sVmy day
p899
I889
sVbarca
p900
I469
sVfew
p901
I785
sVlove it
p902
I449
sVweekend
p903
I95
sVwait for
p904
I40
sVcalibraska
p905
I526
sVhey
p906
I314
sVlol
p907
I280
sVwatchman
p908
I916
sVjason aldean
p909
I347
sVstart
p910
I382
sVmccartney
p911
I587
sVone day
p912
I968
sVway
p913
I451
sVseries
p914
I561
sVforward
p915
I45
sVm so
p916
I85
sVwas
p917
I745
sVhappy
p918
I12
sVa very
p919
I937
sVmcgregor
p920
I401
sVtom cruise
p921
I709
sVbatman
p922
I474
sVgot a
p923
I808
sVboys
p924
I461
sVfor me
p925
I551
sVhear
p926
I767
sVyou re
p927
I682
sVtrue
p928
I584
sVcongratulations
p929
I951
sVlovely
p930
I128
sVhas the
p931
I935
sVjohn cena
p932
I667
sVwish
p933
I108
sVup
p934
I686
sVus
p935
I621
sVrecord
p936
I414
sVat metlife
p937
I861
sVup on
p938
I829
sVthe end
p939
I940
sVi want
p940
I213
sVchelsea
p941
I495
sVso good
p942
I883
sVtaylor
p943
I392
sVit was
p944
I503
sVcinema
p945
I998
sVin my
p946
I424
sVam
p947
I592
sVlife
p948
I277
sVsale
p949
I751
sVthe only
p950
I504
sVrolling
p951
I963
sVat
p952
I576
sVwatched
p953
I205
sVyou for
p954
I438
sVeric
p955
I44
sVfilm
p956
I289
sVcream
p957
I17
sVhit
p958
I819
sVagain
p959
I366
sVyoga
p960
I627
sVi need
p961
I485
sVna
p962
I304
sVpeace
p963
I623
sVnd
p964
I615
sVand the
p965
I649
sVsaturday
p966
I381
sVsee antman
p967
I786
sVclub
p968
I676
sVbook
p969
I235
sVice cream
p970
I15
sVice cube
p971
I322
sVto make
p972
I690
sVyou
p973
I442
sVout
p974
I761
sVi would
p975
I604
sVnice
p976
I49
sVstar
p977
I175
sVmonday
p978
I420
sVwelcome
p979
I53
sVstay
p980
I822
sVchance
p981
I710
sVgon
p982
I309
sVat the
p983
I539
sVchris
p984
I261
sVon thursday
p985
I608
sVlooking forward
p986
I20
sVfriends
p987
I153
sVsamsung
p988
I884
sVwas in
p989
I879
sVtogether
p990
I685
sVyou all
p991
I169
sVking
p992
I997
sVu
p993
I707
sVcame
p994
I742
sVtime
p995
I415
sVfar
p996
I783
sVwith you
p997
I227
sVstarting
p998
I734
sVhaving
p999
I637
sVsongs
p1000
I165
s.