(dp0
Vall
p1
I592
sVtime i
p2
I909
sVashamed
p3
I972
sVto have
p4
I720
sVthe most
p5
I501
sVclinton foundation
p6
I32
sVprotest
p7
I864
sVugh
p8
I979
sVand i
p9
I641
sVcameron
p10
I403
sVliar
p11
I970
sVmay have
p12
I545
sVhate
p13
I17
sVchildren
p14
I171
sVissues
p15
I647
sVof that
p16
I978
sVvotes
p17
I719
sVis nt
p18
I140
sVreligion
p19
I436
sVparis
p20
I730
sVtweet
p21
I490
sVdisgusting
p22
I405
sVriots
p23
I46
sVvoted
p24
I715
sVunder
p25
I368
sVis no
p26
I196
sVsorry
p27
I129
sVwomen
p28
I424
sVits a
p29
I612
sVwoman
p30
I132
sVworse
p31
I5
sVall over
p32
I820
sVfar
p33
I579
sVsmh
p34
I767
sVfat
p35
I522
sVchoice
p36
I562
sVa rd
p37
I744
sVsupposed to
p38
I778
sVworst
p39
I4
sVon his
p40
I997
sVthe ira
p41
I292
sVlook
p42
I523
sVsteve
p43
I228
sVnt care
p44
I591
sVdid
p45
I402
sVdie
p46
I87
sVniggas
p47
I844
sVmichael
p48
I418
sVgun
p49
I101
sVben carson
p50
I738
sVleave
p51
I324
sVmonsanto
p52
I229
sVguy
p53
I308
sVmanslaughter
p54
I56
sVthe dems
p55
I710
sVsays
p56
I525
sVceo
p57
I965
sVtired
p58
I277
sVsucks
p59
I12
sVcarly
p60
I683
sVfeeling
p61
I941
sVshut
p62
I825
sVshit about
p63
I974
sVnt have
p64
I232
sVpast
p65
I937
sVmay as
p66
I210
sVmiley
p67
I982
sVair
p68
I831
sVdraintheswamp
p69
I181
sVbds
p70
I933
sVperry
p71
I516
sVeven
p72
I244
sVyou ca
p73
I962
sVwhat
p74
I476
sVgiving
p75
I988
sVukip
p76
I299
sVis it
p77
I714
sVshe s
p78
I284
sVpublic
p79
I924
sVwaiting
p80
I829
sVis wrong
p81
I973
sVthey may
p82
I507
sVfossil
p83
I28
sVcare about
p84
I468
sVwho is
p85
I850
sVever
p86
I549
sVguns
p87
I898
sVnazis
p88
I417
sVnot the
p89
I398
sVsuch a
p90
I867
sVmy life
p91
I838
sViran
p92
I162
sVthe us
p93
I519
sVnever
p94
I231
sVby a
p95
I798
sVchina
p96
I240
sVpalin
p97
I88
sValone
p98
I938
sViraq
p99
I537
sVchange
p100
I365
sVwhy is
p101
I60
sVkids
p102
I396
sVhas been
p103
I447
sVcompletely
p104
I931
sVnt like
p105
I679
sVjill
p106
I890
sVsocial
p107
I671
sVweird
p108
I922
sVmakes
p109
I364
sVcontrol
p110
I93
sVfix
p111
I914
sVfor what
p112
I870
sVcampaign
p113
I983
sVis that
p114
I202
sVbloody
p115
I78
sVput
p116
I422
sVnot going
p117
I69
sVjust a
p118
I607
sVmuslim
p119
I794
sVfake
p120
I8
sVthe death
p121
I108
sVshould
p122
I452
sVcrisis
p123
I865
sVprime day
p124
I180
sVis not
p125
I72
sVsarah
p126
I146
sVuse
p127
I316
sVcrap
p128
I662
sVwould
p129
I460
sVillegal
p130
I437
sVangry
p131
I772
sVdid not
p132
I780
sVonly
p133
I557
sVangela
p134
I689
sVcall
p135
I334
sVantitrump riots
p136
I873
sVthemselves
p137
I505
sVinjury
p138
I604
sVis
p139
I458
sVpres
p140
I944
sVmore
p141
I552
sVteen
p142
I708
sVisrael
p143
I179
sVto destroy
p144
I783
sVknows
p145
I349
sVbut it
p146
I673
sVtax
p147
I658
sVpipeline
p148
I866
sVhurt
p149
I737
sVwhy the
p150
I942
sVphone
p151
I664
sVrd world
p152
I814
sVwill not
p153
I584
sVignorant
p154
I624
sVif it
p155
I792
sVbroke
p156
I853
sVcharged
p157
I805
sVmust
p158
I372
sVneed to
p159
I598
sVaccount
p160
I862
sVkanye west
p161
I347
sVword
p162
I775
sVhour
p163
I879
sVrights
p164
I477
sVthis
p165
I567
sVcar
p166
I936
sVabortion
p167
I134
sVhe was
p168
I401
sVthe country
p169
I649
sVif the
p170
I638
sVbut you
p171
I711
sVwould have
p172
I506
sVto vote
p173
I999
sVdue to
p174
I399
sVtony blair
p175
I321
sVthis is
p176
I271
sVpotus
p177
I904
sVtrumptransitionteam
p178
I107
sVblack friday
p179
I672
sVsomething
p180
I390
sVjindal
p181
I311
sVcharlie hebdo
p182
I70
sVcrazy
p183
I512
sVmonths
p184
I918
sVtrump
p185
I91
sVgive
p186
I561
sVallowed
p187
I684
sVindia
p188
I543
sVfuck
p189
I9
sVstates
p190
I481
sVbiden
p191
I987
sVhe is
p192
I380
sVa shit
p193
I877
sVdropped
p194
I343
sVsense
p195
I681
sVwas nt
p196
I254
sVvoice
p197
I893
sVrape
p198
I740
sVpence
p199
I705
sVneeds
p200
I333
sVcourt
p201
I745
sVthing
p202
I345
sVrather
p203
I187
sVgeorge soros
p204
I25
sVthe fuck
p205
I37
sVsoros
p206
I18
sVhow
p207
I356
sVswear
p208
I915
sVi do
p209
I218
sVlow
p210
I407
sVanimal
p211
I130
sVmoron
p212
I835
sVinstead
p213
I392
sVanti trump
p214
I597
sVcivilians
p215
I569
sVstand
p216
I919
sVfake news
p217
I426
sVokay
p218
I840
sVtried
p219
I857
sVmay
p220
I494
sVhave to
p221
I429
sVif they
p222
I520
sVfatty the
p223
I90
sVwrong
p224
I61
sVosborne
p225
I246
sVthe amendment
p226
I300
sVsyria
p227
I504
sVlooked
p228
I955
sVsuch
p229
I379
sVsuck
p230
I786
sVlaw
p231
I148
sVi hate
p232
I14
sVas well
p233
I327
sVa
p234
I625
sVthat the
p235
I431
sVdrop
p236
I952
sVnt be
p237
I175
sVthird
p238
I225
sVss
p239
I357
sVmaybe
p240
I644
sVsademoji
p241
I76
sVjail
p242
I304
sVabout it
p243
I811
sVmedia
p244
I125
sVevery
p245
I529
sVhates
p246
I790
sVwords
p247
I981
sVfidel castro
p248
I735
sVtalk
p249
I551
sVbreaking
p250
I823
sVi feel
p251
I888
sVoffice
p252
I759
sVif i
p253
I587
sVover
p254
I480
sVuniteblue
p255
I957
sVit would
p256
I986
sVawful
p257
I331
sVfucked up
p258
I856
sVhe may
p259
I388
sVwolf
p260
I854
sVare not
p261
I312
sVa white
p262
I747
sVyakub
p263
I95
sVstill
p264
I524
sVislam
p265
I214
sVthe problem
p266
I947
sVpolice
p267
I152
sVs no
p268
I951
sVget it
p269
I822
sVand you
p270
I891
sVi see
p271
I621
sVare nt
p272
I124
sVnt a
p273
I800
sVto kill
p274
I339
sVactually
p275
I263
sVanimal testing
p276
I102
sVthe world
p277
I544
sVbobby jindal
p278
I338
sVcriminal
p279
I892
sVtory
p280
I173
sVbut they
p281
I734
sVhappened
p282
I410
sVthem
p283
I290
sVsomeone
p284
I502
sVcrash
p285
I289
sVscotus
p286
I186
sVya
p287
I894
sVto say
p288
I723
sVit all
p289
I703
sVhe s
p290
I430
sVi ve
p291
I615
sVnot be
p292
I596
sVthey
p293
I185
sVnot
p294
I212
sVfbi
p295
I889
sVnow
p296
I510
sVbullshit
p297
I79
sVan idiot
p298
I834
sVterm
p299
I536
sVname
p300
I554
sVthe hell
p301
I81
sVteen wolf
p302
I910
sValways
p303
I533
sVbut she
p304
I750
sVsarah palin
p305
I83
sVa lot
p306
I707
sVstopped
p307
I329
sVtruth
p308
I725
sVnot a
p309
I164
sVdone
p310
I361
sVbig brother
p311
I487
sVis to
p312
I868
sVmean
p313
I462
sVborder
p314
I897
sVcost
p315
I616
sVdoing
p316
I465
sVnothing to
p317
I848
sVhard
p318
I448
sVidea
p319
I701
sVused
p320
I423
sVbrother
p321
I589
sVdoes nt
p322
I145
sVsociety
p323
I899
sVbut the
p324
I351
sVhanged
p325
I479
sVwake up
p326
I751
sVeu
p327
I810
sVdeplorables
p328
I21
sVhebdo
p329
I68
sVcarly fiorina
p330
I742
sVboko haram
p331
I47
sVreally
p332
I400
sVtry
p333
I513
sVca nt
p334
I472
sVfunding
p335
I748
sVmissed
p336
I858
sVwe do
p337
I467
sVmaduro
p338
I116
sVthey have
p339
I885
sVre
p340
I325
sVseriously
p341
I253
sVnt know
p342
I315
sVinternet
p343
I685
sVcause
p344
I348
sVgop
p345
I248
sVhogan
p346
I381
sVass
p347
I58
sVfoundation
p348
I126
sVare a
p349
I473
sVafter
p350
I541
sVpathetic
p351
I643
sVlook like
p352
I601
sVconfused
p353
I943
sVmillion
p354
I806
sVhulk
p355
I441
sVreason
p356
I566
sVbut this
p357
I461
sVconservatives
p358
I11
sVdoes not
p359
I113
sVmanslaughter charges
p360
I967
sVcare
p361
I177
sVliberals are
p362
I716
sVi thought
p363
I440
sVsteal
p364
I443
sVbut
p365
I438
sVterrible
p366
I15
sVkeep
p367
I539
sVcaitlyn jenner
p368
I115
sVturn
p369
I247
sVamerican
p370
I255
sVthreat
p371
I224
sVthe worst
p372
I2
sVmouth
p373
I763
sVthink
p374
I572
sVmad
p375
I226
sVthat is
p376
I830
sVif he
p377
I743
sVfeel
p378
I484
sVwhen you
p379
I666
sVwe may
p380
I824
sVfor president
p381
I718
sVfucked
p382
I55
sVamericans
p383
I235
sVbitch
p384
I54
sVanother
p385
I421
sVpresident
p386
I406
sVvote
p387
I241
sVhave been
p388
I387
sVsounds
p389
I847
sVgeorge
p390
I475
sVmillions
p391
I362
sVcarson
p392
I346
sVguess
p393
I360
sVnt want
p394
I98
sVi sat
p395
I676
sVstuck
p396
I960
sVshooting
p397
I985
sVsystem
p398
I555
sVleast
p399
I618
sVjeb
p400
I106
sVtheir
p401
I286
sVattack
p402
I197
sVwas a
p403
I518
sVfuels are
p404
I901
sVtoo
p405
I412
sVof your
p406
I989
sVpalestine
p407
I328
sVthru
p408
I826
sVwhite
p409
I464
sVthe media
p410
I882
sVcaitlyn
p411
I110
sVmurder
p412
I563
sVkanye
p413
I376
sVof a
p414
I291
sVthat
p415
I391
sVbit
p416
I699
sVnobody
p417
I883
sVwo nt
p418
I141
sVhillary
p419
I57
sVridiculous
p420
I67
sVnigga
p421
I606
sVbelieve
p422
I280
sVthan
p423
I382
sVobama
p424
I153
sVwas the
p425
I535
sVkind
p426
I511
sVben
p427
I385
sVunfortunately
p428
I958
sVnt even
p429
I100
sVhave no
p430
I184
sVmatter
p431
I595
sVi ca
p432
I386
sVmarriage
p433
I151
sVsupposed
p434
I808
sVhave nt
p435
I590
sVgays
p436
I702
sVcollege
p437
I620
sVon your
p438
I694
sVrussia
p439
I230
sVits not
p440
I251
sVbad hombres
p441
I23
sVfalse
p442
I281
sVjeb bush
p443
I112
sVsad
p444
I26
sVtalking
p445
I442
sVsay
p446
I337
sVthe same
p447
I532
sVhave
p448
I632
sVnazi
p449
I354
sVany
p450
I383
sVsat
p451
I646
sVsell
p452
I940
sVlie
p453
I165
sVissue
p454
I454
sVharper
p455
I474
sVable
p456
I817
sVthey re
p457
I137
sVwithout
p458
I499
sVthe people
p459
I183
sVshe is
p460
I980
sVdestroy
p461
I62
sVmany
p462
I249
sVget a
p463
I688
sVfuels
p464
I33
sVunless
p465
I575
sVfidel
p466
I317
sVfrank ocean
p467
I483
sVwho
p468
I409
sVbrexit
p469
I629
sVtook
p470
I594
sVmost
p471
I459
sVdavid cameron
p472
I655
sVgeorge osborne
p473
I260
sVto stop
p474
I787
sVbecause it
p475
I913
sVnothing
p476
I211
sVamerica
p477
I143
sVwhy
p478
I94
sVmichelle
p479
I583
sVis this
p480
I905
sVmore than
p481
I728
sVwindows
p482
I667
sVto die
p483
I949
sVupset
p484
I114
sVface
p485
I433
sVhad to
p486
I732
sVpeople who
p487
I393
sVtry to
p488
I697
sVcan not
p489
I239
sVwas not
p490
I788
sVlying
p491
I283
sVangela merkel
p492
I752
sVsaying
p493
I158
sVright now
p494
I784
sVa woman
p495
I801
sVdemocrats
p496
I236
sVshould have
p497
I966
sVkim fatty
p498
I849
sVfear
p499
I954
sVit is
p500
I404
sVfind
p501
I560
sVlike the
p502
I640
sVneeds to
p503
I769
sVwhat the
p504
I205
sVfront
p505
I756
sVstate
p506
I478
sVsteve bannon
p507
I264
sVpenalty
p508
I40
sVfailed
p509
I313
sVbush
p510
I80
sVblack
p511
I449
sVrick
p512
I275
sVpretty
p513
I631
sVkim jongun
p514
I690
sVof shit
p515
I971
sVmeant
p516
I991
sVdo
p517
I332
sVhis
p518
I565
sVgoes
p519
I736
sVcuba
p520
I198
sVmerkel
p521
I661
sVi d
p522
I635
sVstop
p523
I182
sVthat they
p524
I605
sVruined
p525
I843
sVamazon
p526
I482
sVones
p527
I450
sVblacklivesmatter
p528
I322
sVi did
p529
I821
sVprobably
p530
I517
sVreport
p531
I757
sVat least
p532
I729
sVno one
p533
I296
sVhim
p534
I414
sVmichael moore
p535
I75
sVprime
p536
I378
sVmelania trump
p537
I256
sVtmobile
p538
I819
sVbrain
p539
I663
sVnt get
p540
I193
sVgun control
p541
I150
sVcry
p542
I920
sVcalling
p543
I176
sVbad
p544
I117
sVstupid
p545
I3
sVwhat a
p546
I695
sVshe
p547
I320
sVboring
p548
I912
sVban
p549
I610
sVscott
p550
I508
sVtold
p551
I491
sVwhere
p552
I374
sVfebruary
p553
I776
sVdo with
p554
I895
sVjong un
p555
I294
sValtrightists
p556
I64
sVtesting
p557
I131
sVsex
p558
I209
sVdakota
p559
I975
sVdumb
p560
I71
sVare
p561
I314
sVhell
p562
I123
sVfail
p563
I816
sVand it
p564
I636
sVfossil fuels
p565
I31
sVwonder
p566
I761
sVtrump is
p567
I172
sVpizzagate
p568
I642
sVsaid
p569
I528
sVgay marriage
p570
I135
sVs not
p571
I807
sVapparently
p572
I996
sVaway
p573
I342
sVelectoral
p574
I170
sVnot even
p575
I680
sVenough
p576
I267
sVr
p577
I453
sVhorrible
p578
I250
sVira
p579
I24
sVcorruption
p580
I803
sVpiss
p581
I948
sVmay just
p582
I665
sVmen
p583
I648
sVjobs
p584
I884
sVmissing
p585
I318
sVwo
p586
I136
sVwere
p587
I602
sVyemen
p588
I733
sVkilling
p589
I13
sVblame
p590
I99
sVjob
p591
I652
sVcut
p592
I691
sVwtf
p593
I257
sVwas going
p594
I659
sVnews
p595
I586
sVmaga
p596
I668
sVmust be
p597
I395
sVpissed
p598
I394
sVwe can
p599
I926
sVerdogan
p600
I35
sVlibya
p601
I916
sVpolicy
p602
I992
sVjoke
p603
I121
sVtaking
p604
I530
sVnt you
p605
I653
sVdrug
p606
I469
sVagree
p607
I773
sVs
p608
I509
sVleftists
p609
I1
sVplanned
p610
I63
sVlet
p611
I457
sVcorrupt
p612
I855
sVobamas
p613
I204
sVhezbollah
p614
I724
sVthere is
p615
I428
sVelectoral college
p616
I279
sVsat through
p617
I945
sVcancer
p618
I874
sVpoint
p619
I274
sVnt believe
p620
I446
sVs a
p621
I242
sVca
p622
I488
sVhulk hogan
p623
I377
sVdo not
p624
I852
sVand they
p625
I900
sVhas nt
p626
I556
sVanti
p627
I51
sVthe election
p628
I818
sVwhy does
p629
I677
sVtony
p630
I287
sVdisgrace
p631
I846
sVspeak
p632
I293
sVturkey
p633
I192
sVyakubs
p634
I336
sVwest
p635
I444
sVof this
p636
I921
sVdeaths
p637
I876
sVpolitical
p638
I245
sVdue
p639
I455
sVbeen
p640
I527
sVliberals
p641
I0
sVmuch
p642
I627
sVdamn
p643
I65
sVamazon prime
p644
I341
sVgaza
p645
I411
sVare the
p646
I252
sVwaste
p647
I741
sVwants
p648
I600
sVa bad
p649
I310
sVmay never
p650
I686
sVinnocent
p651
I282
sVgay
p652
I166
sVattacked
p653
I969
sVfire
p654
I860
sVrepublicans
p655
I633
sVdo nt
p656
I189
sVelse
p657
I709
sVtalking about
p658
I760
sVunderstand
p659
I272
sVtrying to
p660
I285
sVchild
p661
I842
sVthey do
p662
I217
sVi have
p663
I550
sVformer
p664
I880
sVthose
p665
I302
sVall the
p666
I408
sVcase
p667
I670
sVto work
p668
I466
sVthese
p669
I216
sVmeans
p670
I828
sVbill
p671
I917
sVbe the
p672
I514
sVbecause of
p673
I369
sVcastro
p674
I199
sVn
p675
I548
sVmiddle
p676
I871
sVugly
p677
I903
sVwhile
p678
I637
sVyou are
p679
I370
sVthe clinton
p680
I203
sVcountry
p681
I155
sVcancelled
p682
I223
sVgave
p683
I799
sVscott walker
p684
I580
sVmistake
p685
I934
sVforce
p686
I812
sVvoters
p687
I906
sVthere s
p688
I359
sVit
p689
I613
sVrip
p690
I977
sVshame
p691
I119
sVbloody sunday
p692
I609
sVdems
p693
I43
sVeuthanasia
p694
I128
sVtried to
p695
I869
sVable to
p696
I939
sVif
p697
I571
sVjenner
p698
I157
sVfunny
p699
I935
sVterrorist
p700
I20
sVdeath penalty
p701
I38
sVkills
p702
I911
sVanymore
p703
I154
sVpay
p704
I233
sVsame
p705
I435
sValeppo
p706
I881
sVspeech
p707
I122
sVshe may
p708
I777
sVcomey
p709
I41
sVgets
p710
I650
sVtrumps
p711
I92
sVthe gop
p712
I837
sVputin
p713
I97
sVfatty
p714
I50
sVforced
p715
I861
sVblair
p716
I220
sVyesterday
p717
I717
sVevil
p718
I82
sVthe third
p719
I109
sVdonald trump
p720
I156
sVto run
p721
I791
sVmedicaid
p722
I39
sVkim
p723
I104
sVthis may
p724
I771
sVfact that
p725
I298
sVplanned parenthood
p726
I53
sVthat he
p727
I765
sVjust like
p728
I956
sVbe a
p729
I639
sVyeah
p730
I706
sVpart of
p731
I851
sVso
p732
I645
sVblood
p733
I698
sVcharges
p734
I303
sVcharlie
p735
I111
sVocean
p736
I500
sVthought
p737
I456
sVperson
p738
I675
sVdrone
p739
I10
sVabout the
p740
I366
sVy
p741
I559
sVclaims
p742
I845
sVlooks like
p743
I553
sVleft
p744
I489
sVby the
p745
I515
sVthings
p746
I656
sVwhat s
p747
I350
sVthe electoral
p748
I432
sVjust
p749
I568
sVless
p750
I191
sVbeing
p751
I243
sVmoney
p752
I138
sVagainst
p753
I531
sVkill
p754
I36
sVhuman
p755
I384
sVworld
p756
I626
sVwhy would
p757
I588
sVreality
p758
I779
sVgive a
p759
I305
sVyet
p760
I326
sVdeath
p761
I84
sVinstead of
p762
I713
sVkind of
p763
I485
sVjongun
p764
I712
sVseems
p765
I169
sVexcept
p766
I634
sVknew
p767
I896
sVkilled
p768
I44
sVwall
p769
I863
sVworse than
p770
I721
sVparents
p771
I704
sVcrying
p772
I268
sVprison
p773
I574
sVi still
p774
I762
sVthat was
p775
I696
sVtell
p776
I651
sVhas
p777
I526
sVno more
p778
I731
sVwhy are
p779
I692
sVhas no
p780
I564
sVmay face
p781
I259
sVstein
p782
I886
sVgovernment
p783
I73
sVis a
p784
I195
sVthat s
p785
I363
sVand now
p786
I908
sVshitty
p787
I968
sVthat i
p788
I540
sVantitrump
p789
I266
sVgovt
p790
I297
sVusing
p791
I213
sVpart
p792
I542
sVhamas
p793
I85
sVdisappointed
p794
I167
sVloss
p795
I593
sVis so
p796
I492
sVlike
p797
I413
sVlost
p798
I86
sVbobby
p799
I288
sVnigeria
p800
I923
sVall of
p801
I833
sVeither
p802
I875
sVharam
p803
I45
sVlose
p804
I66
sVleaves
p805
I669
sVsecurity
p806
I201
sVrich
p807
I841
sVpage
p808
I809
sVnt think
p809
I887
sVi had
p810
I797
sVamendment
p811
I147
sVlike he
p812
I953
sVdrone strikes
p813
I7
sVbecause
p814
I238
sVjews
p815
I619
sVdeal
p816
I496
sVpeople
p817
I133
sVfucking
p818
I19
sVarrested
p819
I295
sVtwitter
p820
I415
sVmay not
p821
I599
sVis just
p822
I149
sVdead
p823
I273
sVdonald
p824
I142
sVelection
p825
I118
sVrespect
p826
I928
sVnot to
p827
I739
sVthinks
p828
I353
sVhombres
p829
I27
sVfox
p830
I813
sVy all
p831
I839
sVcomments
p832
I768
sVconservative
p833
I188
sVeverything
p834
I375
sVand its
p835
I796
sVdoes
p836
I219
sVcould nt
p837
I753
sVcnn
p838
I727
sVwarned
p839
I946
sVboko
p840
I52
sVmay be
p841
I335
sVas much
p842
I995
sVlook at
p843
I795
sVpower
p844
I270
sVbc
p845
I340
sVeach
p846
I755
sVfor an
p847
I929
sVwould nt
p848
I373
sVit seems
p849
I804
sVa fucking
p850
I416
sVbroken
p851
I963
sVif we
p852
I930
sVputting
p853
I964
sVlosing
p854
I534
sVby
p855
I498
sVabout
p856
I427
sVbriana
p857
I827
sVok
p858
I521
sVworking
p859
I678
sVanything
p860
I160
sVoh
p861
I451
sVattacks
p862
I139
sVviolence
p863
I782
sVrick perry
p864
I215
sVlike a
p865
I319
sVface manslaughter
p866
I802
sVmedicare
p867
I34
sVnotmypresident
p868
I194
sVi am
p869
I608
sVor
p870
I603
sVbannon
p871
I262
sVas a
p872
I344
sVit may
p873
I420
sVown
p874
I463
sVclinton
p875
I74
sVterrorists
p876
I77
sVbbc
p877
I367
sVinto
p878
I630
sVdefinitely
p879
I832
sVi guess
p880
I581
sVppl
p881
I144
sVdown
p882
I617
sVlies
p883
I89
sVright
p884
I471
sVfuck you
p885
I878
sVmass
p886
I687
sVbehind
p887
I766
sVjenner may
p888
I42
sVwould be
p889
I573
sVher
p890
I397
sVwrong with
p891
I859
sVbut not
p892
I503
sVsupport
p893
I493
sVbecause he
p894
I654
sVabsolutely
p895
I758
sVracist
p896
I6
sVchristians
p897
I200
sVlot
p898
I674
sVwhy do
p899
I206
sVbiggest
p900
I749
sVdictator
p901
I815
sVwas
p902
I547
sVwar
p903
I105
sVhimself
p904
I301
sVnorth
p905
I700
sVthe charlie
p906
I103
sVimmigration
p907
I159
sVstrikes
p908
I16
sVai nt
p909
I261
sVin a
p910
I585
sVthat does
p911
I959
sVhear
p912
I628
sVnt see
p913
I577
sVmelania
p914
I48
sVsat on
p915
I907
sVyou re
p916
I486
sVtrying
p917
I330
sValtright
p918
I178
sVhe
p919
I419
sVembargo
p920
I174
sVsocial security
p921
I902
sVbe hanged
p922
I789
sVisis
p923
I163
sVyou do
p924
I352
sVhappen
p925
I774
sVdangerous
p926
I439
sVtrash
p927
I961
sVur
p928
I237
sVis an
p929
I358
sVun
p930
I309
sVallah
p931
I470
sVuk
p932
I570
sVacting
p933
I932
sVproblem
p934
I29
sVthey are
p935
I161
sVcalled
p936
I434
sVnot have
p937
I927
sVgone
p938
I389
sVcmon
p939
I258
sVliberal
p940
I221
sVmoore
p941
I96
sVit was
p942
I578
sVthe biggest
p943
I793
sVai
p944
I307
sVin my
p945
I425
sVve ever
p946
I984
sVforgot
p947
I754
sVromney
p948
I323
sVan
p949
I576
sVnot like
p950
I994
sVthe only
p951
I614
sVas
p952
I497
sVand not
p953
I836
sVschool tomorrow
p954
I976
sVplan
p955
I998
sVannoying
p956
I355
sVgirl
p957
I622
sVshit
p958
I30
sVsupporters
p959
I746
sVagain
p960
I582
sVmake me
p961
I872
sVnow i
p962
I925
sVno
p963
I190
sVidiot
p964
I22
sVwatched the
p965
I993
sVpeace
p966
I770
sVwhen
p967
I495
sVfracking
p968
I127
sVin january
p969
I693
sVother
p970
I445
sVjong
p971
I265
sVsick
p972
I120
sVout of
p973
I208
sVthe fact
p974
I234
sVnt make
p975
I168
sVnt
p976
I227
sVi would
p977
I722
sVrealize
p978
I726
sVshould be
p979
I371
sVpoor
p980
I207
sVliving
p981
I990
sVa joke
p982
I611
sVm not
p983
I222
sVmay allah
p984
I623
sVparenthood
p985
I49
sVmuslims
p986
I59
sVdid nt
p987
I269
sVhe does
p988
I950
sVbut he
p989
I682
sVdied
p990
I278
sVwe need
p991
I785
sVcalls
p992
I306
sVtogether
p993
I781
sVu
p994
I558
sVfact
p995
I276
sVwalker
p996
I657
sVwake
p997
I546
sVs the
p998
I764
sVhaving
p999
I538
sVonce
p1000
I660
s.